target datalayout = "e-m:e-p270:32:32-p271:32:32-p272:64:64-i64:64-i128:128-f80:128-n8:16:32:64-S128"
target triple = "x86_64-unknown-linux-gnu"

%struct.ErrorPropagator = type { ptr, ptr }
%struct.BlockDriverState = type { i32, i8, i8, i8, i8, i8, ptr, ptr, ptr, %struct.anon, i8, [4096 x i8], [4096 x i8], [4096 x i8], [16 x i8], ptr, [4096 x i8], %struct.BlockLimits, i32, i32, i32, i32, [32 x i8], %union.anon, %union.anon.0, %union.anon.1, i32, [16 x %struct.anon.2], ptr, %struct.anon.3, ptr, ptr, %struct.anon.4, ptr, ptr, i32, ptr, i64, i64, %struct.QemuMutex, %struct.anon.5, %struct.Stat64, i32, i32, i32, i32, i32, i32, %struct.QemuMutex, %struct.anon.6, %struct.CoQueue, i8, i32, i8, %struct.CoMutex, ptr, ptr }
%struct.anon = type { ptr }
%struct.BlockLimits = type { i32, i64, i32, i64, i32, i32, i32, i64, i32, i64, i64, i32, i8, i32, i32, i32, i32, i32, i32, i32 }
%union.anon = type { %struct.QTailQLink }
%struct.QTailQLink = type { ptr, ptr }
%union.anon.0 = type { %struct.QTailQLink }
%union.anon.1 = type { %struct.QTailQLink }
%struct.anon.2 = type { ptr }
%struct.anon.3 = type { ptr }
%struct.anon.4 = type { ptr }
%struct.anon.5 = type { ptr }
%struct.Stat64 = type { i64 }
%struct.QemuMutex = type { %union.pthread_mutex_t, i8 }
%union.pthread_mutex_t = type { %struct.__pthread_mutex_s }
%struct.__pthread_mutex_s = type { i32, i32, i32, i32, i32, i16, i16, %struct.__pthread_internal_list }
%struct.__pthread_internal_list = type { ptr, ptr }
%struct.anon.6 = type { ptr }
%struct.CoQueue = type { %struct.anon.7 }
%struct.anon.7 = type { ptr, ptr }
%struct.CoMutex = type { i32, ptr, %struct.anon.8, %struct.anon.8, i32, i32, ptr }
%struct.anon.8 = type { ptr }
%struct.BlockGraphInfo = type { ptr, ptr, i8, i8, i8, i64, i64, i8, i64, i8, i8, i8, i8, ptr, ptr, ptr, i8, ptr, ptr, ptr }
%struct.BlockChildInfoList = type { ptr, ptr }
%struct.BdrvChild = type { ptr, ptr, ptr, i32, ptr, i64, i64, i8, i8, %struct.anon.11, %struct.anon.12 }
%struct.anon.11 = type { ptr, ptr }
%struct.anon.12 = type { ptr, ptr }
%struct.BlockChildInfo = type { ptr, ptr }

@error_fatal = external global ptr, align 8
@.str = private unnamed_addr constant [21 x i8] c"../qemu/block/qapi.c\00", align 1
@.str.6 = private unnamed_addr constant [14 x i8] c"*errp != NULL\00", align 1
@__PRETTY_FUNCTION__.bdrv_query_block_graph_info = private unnamed_addr constant [82 x i8] c"void bdrv_query_block_graph_info(BlockDriverState *, BlockGraphInfo **, Error **)\00", align 1

; Function Attrs: nounwind sspstrong uwtable
define internal void @error_propagator_cleanup(ptr noundef %prop) #0 {
entry:
  %prop.addr = alloca ptr, align 8
  store ptr %prop, ptr %prop.addr, align 8
  %0 = load ptr, ptr %prop.addr, align 8
  %errp = getelementptr inbounds %struct.ErrorPropagator, ptr %0, i32 0, i32 1
  %1 = load ptr, ptr %errp, align 8
  %2 = load ptr, ptr %prop.addr, align 8
  %local_err = getelementptr inbounds %struct.ErrorPropagator, ptr %2, i32 0, i32 0
  %3 = load ptr, ptr %local_err, align 8
  call void @error_propagate(ptr noundef %1, ptr noundef %3)
  ret void
}

; Function Attrs: nounwind sspstrong uwtable
define internal void @glib_auto_cleanup_ErrorPropagator(ptr noundef %_ptr) #0 {
entry:
  %_ptr.addr = alloca ptr, align 8
  store ptr %_ptr, ptr %_ptr.addr, align 8
  %0 = load ptr, ptr %_ptr.addr, align 8
  call void @error_propagator_cleanup(ptr noundef %0)
  ret void
}

; Function Attrs: nounwind sspstrong uwtable
define internal ptr @qapi_BlockGraphInfo_base(ptr noundef %obj) #0 {
entry:
  %obj.addr = alloca ptr, align 8
  store ptr %obj, ptr %obj.addr, align 8
  %0 = load ptr, ptr %obj.addr, align 8
  ret ptr %0
}

; Function Attrs: nounwind sspstrong uwtable
define dso_local void @bdrv_query_block_graph_info(ptr noundef %bs, ptr noundef %p_info, ptr noundef %errp) #0 {
entry:
  %bs.addr = alloca ptr, align 8
  %p_info.addr = alloca ptr, align 8
  %errp.addr = alloca ptr, align 8
  %info = alloca ptr, align 8
  %children_list_tail = alloca ptr, align 8
  %c = alloca ptr, align 8
  %_auto_errp_prop = alloca %struct.ErrorPropagator, align 8
  %c_info = alloca ptr, align 8
  %cleanup.dest.slot = alloca i32, align 4
  store ptr %bs, ptr %bs.addr, align 8
  store ptr %p_info, ptr %p_info.addr, align 8
  store ptr %errp, ptr %errp.addr, align 8
  %local_err = getelementptr inbounds %struct.ErrorPropagator, ptr %_auto_errp_prop, i32 0, i32 0
  store ptr null, ptr %local_err, align 8
  %errp1 = getelementptr inbounds %struct.ErrorPropagator, ptr %_auto_errp_prop, i32 0, i32 1
  %0 = load ptr, ptr %errp.addr, align 8
  store ptr %0, ptr %errp1, align 8
  br label %do.body

do.body:                                          ; preds = %entry
  %1 = load ptr, ptr %errp.addr, align 8
  %tobool = icmp ne ptr %1, null
  br i1 %tobool, label %lor.lhs.false, label %if.then

lor.lhs.false:                                    ; preds = %do.body
  %2 = load ptr, ptr %errp.addr, align 8
  %cmp = icmp eq ptr %2, @error_fatal
  br i1 %cmp, label %if.then, label %if.end

if.then:                                          ; preds = %lor.lhs.false, %do.body
  %local_err2 = getelementptr inbounds %struct.ErrorPropagator, ptr %_auto_errp_prop, i32 0, i32 0
  store ptr %local_err2, ptr %errp.addr, align 8
  br label %if.end

if.end:                                           ; preds = %if.then, %lor.lhs.false
  br label %do.cond

do.cond:                                          ; preds = %if.end
  br label %do.end

do.end:                                           ; preds = %do.cond
  %call = call noalias ptr @g_malloc0_n(i64 noundef 1, i64 noundef 120) #10
  store ptr %call, ptr %info, align 8
  %3 = load ptr, ptr %bs.addr, align 8
  %4 = load ptr, ptr %info, align 8
  %call3 = call ptr @qapi_BlockGraphInfo_base(ptr noundef %4)
  %5 = load ptr, ptr %errp.addr, align 8
  call void @bdrv_do_query_node_info(ptr noundef %3, ptr noundef %call3, ptr noundef %5)
  %6 = load ptr, ptr %errp.addr, align 8
  %7 = load ptr, ptr %6, align 8
  %tobool4 = icmp ne ptr %7, null
  br i1 %tobool4, label %if.then5, label %if.end6

if.then5:                                         ; preds = %do.end
  br label %fail

if.end6:                                          ; preds = %do.end
  %8 = load ptr, ptr %info, align 8
  %children = getelementptr inbounds %struct.BlockGraphInfo, ptr %8, i32 0, i32 19
  store ptr %children, ptr %children_list_tail, align 8
  %9 = load ptr, ptr %bs.addr, align 8
  %children7 = getelementptr inbounds %struct.BlockDriverState, ptr %9, i32 0, i32 29
  %lh_first = getelementptr inbounds %struct.anon.3, ptr %children7, i32 0, i32 0
  %10 = load ptr, ptr %lh_first, align 8
  store ptr %10, ptr %c, align 8
  br label %for.cond

for.cond:                                         ; preds = %for.inc, %if.end6
  %11 = load ptr, ptr %c, align 8
  %tobool8 = icmp ne ptr %11, null
  br i1 %tobool8, label %for.body, label %for.end

for.body:                                         ; preds = %for.cond
  %call9 = call noalias ptr @g_malloc0_n(i64 noundef 1, i64 noundef 16) #10
  store ptr %call9, ptr %c_info, align 8
  br label %do.body10

do.body10:                                        ; preds = %for.body
  %call11 = call noalias ptr @g_malloc0(i64 noundef 16) #9
  %12 = load ptr, ptr %children_list_tail, align 8
  store ptr %call11, ptr %12, align 8
  %13 = load ptr, ptr %c_info, align 8
  %14 = load ptr, ptr %children_list_tail, align 8
  %15 = load ptr, ptr %14, align 8
  %value = getelementptr inbounds %struct.BlockChildInfoList, ptr %15, i32 0, i32 1
  store ptr %13, ptr %value, align 8
  %16 = load ptr, ptr %children_list_tail, align 8
  %17 = load ptr, ptr %16, align 8
  %next = getelementptr inbounds %struct.BlockChildInfoList, ptr %17, i32 0, i32 0
  store ptr %next, ptr %children_list_tail, align 8
  br label %do.cond12

do.cond12:                                        ; preds = %do.body10
  br label %do.end13

do.end13:                                         ; preds = %do.cond12
  %18 = load ptr, ptr %c, align 8
  %name = getelementptr inbounds %struct.BdrvChild, ptr %18, i32 0, i32 1
  %19 = load ptr, ptr %name, align 8
  %call14 = call noalias ptr @g_strdup(ptr noundef %19)
  %20 = load ptr, ptr %c_info, align 8
  %name15 = getelementptr inbounds %struct.BlockChildInfo, ptr %20, i32 0, i32 0
  store ptr %call14, ptr %name15, align 8
  %21 = load ptr, ptr %c, align 8
  %bs16 = getelementptr inbounds %struct.BdrvChild, ptr %21, i32 0, i32 0
  %22 = load ptr, ptr %bs16, align 8
  %23 = load ptr, ptr %c_info, align 8
  %info17 = getelementptr inbounds %struct.BlockChildInfo, ptr %23, i32 0, i32 1
  %24 = load ptr, ptr %errp.addr, align 8
  call void @bdrv_query_block_graph_info(ptr noundef %22, ptr noundef %info17, ptr noundef %24)
  %25 = load ptr, ptr %errp.addr, align 8
  %26 = load ptr, ptr %25, align 8
  %tobool18 = icmp ne ptr %26, null
  br i1 %tobool18, label %if.then19, label %if.end20

if.then19:                                        ; preds = %do.end13
  br label %fail

if.end20:                                         ; preds = %do.end13
  br label %for.inc

for.inc:                                          ; preds = %if.end20
  %27 = load ptr, ptr %c, align 8
  %next21 = getelementptr inbounds %struct.BdrvChild, ptr %27, i32 0, i32 9
  %le_next = getelementptr inbounds %struct.anon.11, ptr %next21, i32 0, i32 0
  %28 = load ptr, ptr %le_next, align 8
  store ptr %28, ptr %c, align 8
  br label %for.cond, !llvm.loop !8

for.end:                                          ; preds = %for.cond
  %29 = load ptr, ptr %info, align 8
  %30 = load ptr, ptr %p_info.addr, align 8
  store ptr %29, ptr %30, align 8
  store i32 1, ptr %cleanup.dest.slot, align 4
  br label %cleanup

fail:                                             ; preds = %if.then19, %if.then5
  %31 = load ptr, ptr %errp.addr, align 8
  %32 = load ptr, ptr %31, align 8
  %cmp22 = icmp ne ptr %32, null
  br i1 %cmp22, label %if.then23, label %if.else

if.then23:                                        ; preds = %fail
  br label %if.end24

if.else:                                          ; preds = %fail
  call void @__assert_fail(ptr noundef @.str.6, ptr noundef @.str, i32 noundef 420, ptr noundef @__PRETTY_FUNCTION__.bdrv_query_block_graph_info) #11
  unreachable

if.end24:                                         ; preds = %if.then23
  %33 = load ptr, ptr %info, align 8
  call void @qapi_free_BlockGraphInfo(ptr noundef %33)
  store i32 0, ptr %cleanup.dest.slot, align 4
  br label %cleanup

cleanup:                                          ; preds = %if.end24, %for.end
  call void @glib_auto_cleanup_ErrorPropagator(ptr noundef %_auto_errp_prop)
  %cleanup.dest = load i32, ptr %cleanup.dest.slot, align 4
  switch i32 %cleanup.dest, label %unreachable [
    i32 0, label %cleanup.cont
    i32 1, label %cleanup.cont
  ]

cleanup.cont:                                     ; preds = %cleanup, %cleanup
  ret void

unreachable:                                      ; preds = %cleanup
  unreachable
}