; Function Attrs: nounwind sspstrong uwtable
define dso_local void @bdrv_query_block_graph_info(ptr noundef %bs, ptr noundef writeonly captures(none) %p_info, ptr noundef %errp) local_unnamed_addr #0 {
entry:
  %_auto_errp_prop = alloca %struct.ErrorPropagator, align 8
  store ptr null, ptr %_auto_errp_prop, align 8
  %errp1 = getelementptr inbounds nuw i8, ptr %_auto_errp_prop, i64 8
  store ptr %errp, ptr %errp1, align 8
  %tobool = icmp eq ptr %errp, null
  %cmp = icmp eq ptr %errp, @error_fatal
  %or.cond = or i1 %tobool, %cmp
  %spec.select = select i1 %or.cond, ptr %_auto_errp_prop, ptr %errp
  %call = tail call noalias dereferenceable_or_null(120) ptr @g_malloc0_n(i64 noundef 1, i64 noundef 120) #12
  call fastcc void @bdrv_do_query_node_info(ptr noundef %bs, ptr noundef %call, ptr noundef %spec.select)
  %0 = load ptr, ptr %spec.select, align 8
  %tobool4.not = icmp eq ptr %0, null
  br i1 %tobool4.not, label %if.end6, label %if.end24

if.end6:                                          ; preds = %entry
  %children7 = getelementptr inbounds nuw i8, ptr %bs, i64 16824
  %c.020 = load ptr, ptr %children7, align 8
  %tobool8.not21 = icmp eq ptr %c.020, null
  br i1 %tobool8.not21, label %for.end, label %for.body.preheader

for.body.preheader:                               ; preds = %if.end6
  %children = getelementptr inbounds nuw i8, ptr %call, i64 112
  br label %for.body

for.cond:                                         ; preds = %for.body
  %next21 = getelementptr inbounds nuw i8, ptr %c.023, i64 64
  %c.0 = load ptr, ptr %next21, align 8
  %tobool8.not = icmp eq ptr %c.0, null
  br i1 %tobool8.not, label %for.end, label %for.body, !llvm.loop !8

for.body:                                         ; preds = %for.body.preheader, %for.cond
  %c.023 = phi ptr [ %c.0, %for.cond ], [ %c.020, %for.body.preheader ]
  %children_list_tail.022 = phi ptr [ %1, %for.cond ], [ %children, %for.body.preheader ]
  %call9 = call noalias dereferenceable_or_null(16) ptr @g_malloc0_n(i64 noundef 1, i64 noundef 16) #12
  %call11 = call noalias dereferenceable_or_null(16) ptr @g_malloc0(i64 noundef 16) #11
  store ptr %call11, ptr %children_list_tail.022, align 8
  %value = getelementptr inbounds nuw i8, ptr %call11, i64 8
  store ptr %call9, ptr %value, align 8
  %1 = load ptr, ptr %children_list_tail.022, align 8
  %name = getelementptr inbounds nuw i8, ptr %c.023, i64 8
  %2 = load ptr, ptr %name, align 8
  %call14 = call noalias ptr @g_strdup(ptr noundef %2) #10
  store ptr %call14, ptr %call9, align 8
  %3 = load ptr, ptr %c.023, align 8
  %info17 = getelementptr inbounds nuw i8, ptr %call9, i64 8
  call void @bdrv_query_block_graph_info(ptr noundef %3, ptr noundef nonnull %info17, ptr noundef nonnull %spec.select)
  %4 = load ptr, ptr %spec.select, align 8
  %tobool18.not = icmp eq ptr %4, null
  br i1 %tobool18.not, label %for.cond, label %if.end24

for.end:                                          ; preds = %for.cond, %if.end6
  store ptr %call, ptr %p_info, align 8
  br label %cleanup

if.end24:                                         ; preds = %for.body, %entry
  call void @qapi_free_BlockGraphInfo(ptr noundef %call) #10
  br label %cleanup

cleanup:                                          ; preds = %if.end24, %for.end
  %_auto_errp_prop.val = load ptr, ptr %_auto_errp_prop, align 8
  %_auto_errp_prop.val19 = load ptr, ptr %errp1, align 8
  call void @error_propagate(ptr noundef %_auto_errp_prop.val19, ptr noundef %_auto_errp_prop.val) #10
  ret void
}